(iroom
Room
p0
(dp1
S'door_num'
p2
I3
sS'counter'
p3
I3
sS'adj'
p4
(lp5
(iroom
Room
p6
(dp7
g2
I5
sg3
I5
sg4
(lp8
g0
a(iroom
Room
p9
(dp10
g2
I2
sg3
I2
sg4
(lp11
(iroom
Room
p12
(dp13
g2
I1
sg3
I1
sg4
(lp14
g9
asS'name'
p15
S'Mansion Core'
p16
sS'desc'
p17
S''
p18
sbag6
asg15
S"Toto's Chamber"
p19
sg17
g18
sbag6
ag6
a(iroom
Room
p20
(dp21
g2
I4
sg3
I4
sg4
(lp22
(iroom
Room
p23
(dp24
g2
I1
sg3
I1
sg4
(lp25
g20
asg15
S"Ilta's Balcony"
p26
sg17
g18
sba(iroom
Room
p27
(dp28
g2
I8
sg3
I8
sg4
(lp29
(iroom
Room
p30
(dp31
g2
I1
sg3
I1
sg4
(lp32
g27
asg15
S'Cell 5'
p33
sg17
g18
sbag20
a(iroom
Room
p34
(dp35
g2
I5
sg3
I5
sg4
(lp36
(iroom
Room
p37
(dp38
g2
I3
sg3
I3
sg4
(lp39
(iroom
Room
p40
(dp41
g2
I1
sg3
I1
sg4
(lp42
g37
asg15
S'Closet'
p43
sg17
g18
sba(iroom
Room
p44
(dp45
g2
I2
sg3
I2
sg4
(lp46
g37
a(iroom
Room
p47
(dp48
g2
I1
sg3
I1
sg4
(lp49
g44
asg15
S'Cave'
p50
sg17
g18
sbasg15
S"Ilta's Room"
p51
sg17
g18
sbag34
asg15
S'Green House'
p52
sg17
g18
sba(iroom
Room
p53
(dp54
g2
I1
sg3
I1
sg4
(lp55
g34
asg15
S'Cell 4'
p56
sg17
g18
sbag27
ag27
a(iroom
Room
p57
(dp58
g2
I10
sg3
I10
sg4
(lp59
(iroom
Room
p60
(dp61
g2
I1
sg3
I1
sg4
(lp62
g57
asg15
S'Bathroom 1'
p63
sg17
g18
sba(iroom
Room
p64
(dp65
g2
I2
sg3
I2
sg4
(lp66
g57
ag57
asg15
S'Den'
p67
sg17
g18
sba(iroom
Room
p68
(dp69
g2
I1
sg3
I1
sg4
(lp70
g57
asg15
S'Cell 2'
p71
sg17
g18
sba(iroom
Room
p72
(dp73
g2
I2
sg3
I2
sg4
(lp74
g57
a(iroom
Room
p75
(dp76
g2
I1
sg3
I1
sg4
(lp77
g72
asg15
S'Cell 3'
p78
sg17
g18
sbasg15
S'Guest Bed 1'
p79
sg17
g18
sbag64
ag57
ag57
ag57
ag57
ag34
asg15
S'Forier'
p80
sg17
g18
sbasg15
S'Hallway 2'
p81
sg17
g18
sbag34
ag27
ag27
ag27
ag27
asg15
S'Basement Hall'
p82
sg17
g18
sbag6
a(iroom
Room
p83
(dp84
g2
I2
sg3
I2
sg4
(lp85
(iroom
Room
p86
(dp87
g2
I1
sg3
I1
sg4
(lp88
g83
asg15
S'Cell 1'
p89
sg17
g18
sbag20
asg15
S'Guest Bed 2'
p90
sg17
g18
sbasg15
S'Staircase'
p91
sg17
g18
sbasg15
S'Hallway 1'
p92
sg17
g18
sba(iroom
Room
p93
(dp94
g2
I1
sg3
I1
sg4
(lp95
g0
asg15
S'Bathroom 2'
p96
sg17
g18
sba(iroom
Room
p97
(dp98
g2
I1
sg3
I1
sg4
(lp99
g0
asg15
S'Attic'
p100
sg17
g18
sbasg15
S'Dining Room'
p101
sg17
g18
sb.