(dp0
S'grue'
p1
(inpc
NPC
p2
(dp3
S'stagger'
p4
I3
sS'counter'
p5
I0
sS'is_mobile'
p6
I01
sS'name'
p7
S'Grue'
p8
sS'location'
p9
S'Basement Hall'
p10
sbsS'cube'
p11
(inpc
NPC
p12
(dp13
g4
I7
sg5
I0
sg6
I01
sg7
S'Gelatinous Cube'
p14
sg9
S'Forier'
p15
sbsS'beast'
p16
(inpc
NPC
p17
(dp18
g4
I4
sg5
I2
sg6
I01
sg7
S'Displacer Beast'
p19
sg9
S'Guest Bed 2'
p20
sbsS'ithilid'
p21
(inpc
NPC
p22
(dp23
g4
I2
sg5
I7
sg6
I00
sg7
S'Ithilid'
p24
sg9
S'Cell 3'
p25
sbsS'rust'
p26
(inpc
NPC
p27
(dp28
g4
I8
sg5
I7
sg6
I01
sg7
S'Rust Monster'
p29
sg9
S'Cell 4'
p30
sbsS'xorn'
p31
(inpc
NPC
p32
(dp33
g4
I4
sg5
I3
sg6
I01
sg7
S'Xorn'
p34
sg9
S'Library'
p35
sbs.