(dp0
S'shadow3'
p1
(inpc
NPC
p2
(dp3
S'stagger'
p4
I1
sS'counter'
p5
I0
sS'is_mobile'
p6
I01
sS'name'
p7
S'Shadow 3'
p8
sS'location'
p9
S'Forier'
p10
sbsS'shadow2'
p11
(inpc
NPC
p12
(dp13
g4
I1
sg5
I0
sg6
I01
sg7
S'Shadow 2'
p14
sg9
g10
sbsS'shadow1'
p15
(inpc
NPC
p16
(dp17
g4
I1
sg5
I0
sg6
I01
sg7
S'Shadow 1'
p18
sg9
S'Cell 4'
p19
sbsS'witch1'
p20
(inpc
NPC
p21
(dp22
g4
I1
sg5
I7
sg6
I00
sg7
S'Witch 1'
p23
sg9
S'Attic'
p24
sbsS'soldier11'
p25
(inpc
NPC
p26
(dp27
g4
I1
sg5
I0
sg6
I01
sg7
S'Solider 1'
p28
sg9
S'Library'
p29
sbsS'witch2'
p30
(inpc
NPC
p31
(dp32
g4
I1
sg5
I0
sg6
I01
sg7
S'Witch 2'
p33
sg9
S'Hallway 1'
p34
sbsS'soldier12'
p35
(inpc
NPC
p36
(dp37
g4
I1
sg5
I0
sg6
I01
sg7
g28
sg9
g29
sbsS'soldier8'
p38
(inpc
NPC
p39
(dp40
g4
I1
sg5
I0
sg6
I01
sg7
S'Solider 8'
p41
sg9
S'Basement Hall'
p42
sbsS'soldier9'
p43
(inpc
NPC
p44
(dp45
g4
I1
sg5
I0
sg6
I01
sg7
S'Solider 9'
p46
sg9
S'Guest Bed 2'
p47
sbsS'soldier10'
p48
(inpc
NPC
p49
(dp50
g4
I1
sg5
I0
sg6
I01
sg7
S'Solider 10'
p51
sg9
S'Mansion Core'
p52
sbsS'soldier2'
p53
(inpc
NPC
p54
(dp55
g4
I1
sg5
I0
sg6
I01
sg7
S'Solider 2'
p56
sg9
g34
sbsS'soldier3'
p57
(inpc
NPC
p58
(dp59
g4
I1
sg5
I0
sg6
I01
sg7
S'Solider 3'
p60
sg9
g52
sbsS'soldier1'
p61
(inpc
NPC
p62
(dp63
g4
I1
sg5
I0
sg6
I00
sg7
g28
sg9
g24
sbsS'soldier6'
p64
(inpc
NPC
p65
(dp66
g4
I1
sg5
I0
sg6
I01
sg7
S'Solider 6'
p67
sg9
S'Hallway 2'
p68
sbsS'soldier7'
p69
(inpc
NPC
p70
(dp71
g4
I1
sg5
I0
sg6
I01
sg7
S'Solider 7'
p72
sg9
g10
sbsS'soldier4'
p73
(inpc
NPC
p74
(dp75
g4
I1
sg5
I0
sg6
I01
sg7
S'Solider 4'
p76
sg9
g42
sbsS'soldier5'
p77
(inpc
NPC
p78
(dp79
g4
I1
sg5
I0
sg6
I01
sg7
S'Solider 5'
p80
sg9
S'Front Porch'
p81
sbs.