(dp0
S'Bathroom 1'
p1
(lp2
S'Forier'
p3
asS'Bathroom 2'
p4
(lp5
S'Dining Room'
p6
asS'Closet'
p7
(lp8
S'Green House'
p9
asS'Mansion Core'
p10
(lp11
S"Toto's Chamber"
p12
asS'Cave'
p13
(lp14
S"Ilta's Room"
p15
asg6
(lp16
S'Hallway 1'
p17
ag4
aS'Attic'
p18
asS"Ilta's Balcony"
p19
(lp20
S'Staircase'
p21
asg21
(lp22
g19
aS'Basement Hall'
p23
ag17
aS'Guest Bed 2'
p24
asg23
(lp25
S'Cell 5'
p26
ag21
aS'Hallway 2'
p27
ag27
ag23
ag23
ag23
ag23
asS'Patio'
p28
(lp29
S'Library'
p30
asg9
(lp31
g7
ag15
ag27
asS'Garden Path'
p32
(lp33
S'Front Porch'
p34
asg12
(lp35
g10
ag17
asg34
(lp36
g32
asS'Tower Study'
p37
(lp38
S'Roof'
p39
asg24
(lp40
S'Cell 1'
p41
ag21
asg27
(lp42
g9
aS'Cell 4'
p43
ag23
ag23
ag3
asg17
(lp44
g6
ag12
ag17
ag17
ag21
asS'Guest Bed 1'
p45
(lp46
g3
aS'Cell 3'
p47
asg39
(lp48
g37
asS'Den'
p49
(lp50
g3
ag3
asS'Training Room'
p51
(lp52
S'Kitchen'
p53
asS'Cell 2'
p54
(lp55
g3
asg47
(lp56
g45
asg41
(lp57
g24
asS'Cell 6'
p58
(lp59
g30
asg43
(lp60
g27
asg26
(lp61
g23
asg18
(lp62
g6
asg15
(lp63
g9
ag13
asg30
(lp64
g28
ag58
asg3
(lp65
g1
ag49
ag54
ag45
ag49
ag3
ag3
ag3
ag3
ag27
asg53
(lp66
g51
as.